target datalayout = "e-m:e-p270:32:32-p271:32:32-p272:64:64-i64:64-i128:128-f80:128-n8:16:32:64-S128"
target triple = "x86_64-pc-linux-gnu"

; Function Attrs: nounwind sspstrong uwtable
define hidden i32 @ruby_marshal_write_long(i64 noundef %0, ptr noundef %1) #0 {
  %3 = alloca i32, align 4
  %4 = alloca i64, align 8
  %5 = alloca ptr, align 8
  %6 = alloca i32, align 4
  %7 = alloca i32, align 4
  store i64 %0, ptr %4, align 8, !tbaa !7
  store ptr %1, ptr %5, align 8, !tbaa !20
  call void @llvm.lifetime.start.p0(i64 4, ptr %6) #23
  %8 = load i64, ptr %4, align 8, !tbaa !7
  %9 = ashr i64 %8, 31
  %10 = icmp eq i64 %9, 0
  br i1 %10, label %16, label %11

11:                                               ; preds = %2
  %12 = load i64, ptr %4, align 8, !tbaa !7
  %13 = ashr i64 %12, 31
  %14 = icmp eq i64 %13, -1
  br i1 %14, label %16, label %15

15:                                               ; preds = %11
  store i32 -1, ptr %3, align 4
  store i32 1, ptr %7, align 4
  br label %84

16:                                               ; preds = %11, %2
  %17 = load i64, ptr %4, align 8, !tbaa !7
  %18 = icmp eq i64 %17, 0
  br i1 %18, label %19, label %22

19:                                               ; preds = %16
  %20 = load ptr, ptr %5, align 8, !tbaa !20
  %21 = getelementptr i8, ptr %20, i64 0
  store i8 0, ptr %21, align 1, !tbaa !24
  store i32 1, ptr %3, align 4
  store i32 1, ptr %7, align 4
  br label %84

22:                                               ; preds = %16
  %23 = load i64, ptr %4, align 8, !tbaa !7
  %24 = icmp slt i64 0, %23
  br i1 %24, label %25, label %34

25:                                               ; preds = %22
  %26 = load i64, ptr %4, align 8, !tbaa !7
  %27 = icmp slt i64 %26, 123
  br i1 %27, label %28, label %34

28:                                               ; preds = %25
  %29 = load i64, ptr %4, align 8, !tbaa !7
  %30 = add i64 %29, 5
  %31 = trunc i64 %30 to i8
  %32 = load ptr, ptr %5, align 8, !tbaa !20
  %33 = getelementptr i8, ptr %32, i64 0
  store i8 %31, ptr %33, align 1, !tbaa !24
  store i32 1, ptr %3, align 4
  store i32 1, ptr %7, align 4
  br label %84

34:                                               ; preds = %25, %22
  %35 = load i64, ptr %4, align 8, !tbaa !7
  %36 = icmp slt i64 -124, %35
  br i1 %36, label %37, label %47

37:                                               ; preds = %34
  %38 = load i64, ptr %4, align 8, !tbaa !7
  %39 = icmp slt i64 %38, 0
  br i1 %39, label %40, label %47

40:                                               ; preds = %37
  %41 = load i64, ptr %4, align 8, !tbaa !7
  %42 = sub i64 %41, 5
  %43 = and i64 %42, 255
  %44 = trunc i64 %43 to i8
  %45 = load ptr, ptr %5, align 8, !tbaa !20
  %46 = getelementptr i8, ptr %45, i64 0
  store i8 %44, ptr %46, align 1, !tbaa !24
  store i32 1, ptr %3, align 4
  store i32 1, ptr %7, align 4
  br label %84

47:                                               ; preds = %37, %34
  store i32 1, ptr %6, align 4, !tbaa !22
  br label %48

48:                                               ; preds = %78, %47
  %49 = load i32, ptr %6, align 4, !tbaa !22
  %50 = icmp slt i32 %49, 9
  br i1 %50, label %51, label %81

51:                                               ; preds = %48
  %52 = load i64, ptr %4, align 8, !tbaa !7
  %53 = and i64 %52, 255
  %54 = trunc i64 %53 to i8
  %55 = load ptr, ptr %5, align 8, !tbaa !20
  %56 = load i32, ptr %6, align 4, !tbaa !22
  %57 = sext i32 %56 to i64
  %58 = getelementptr i8, ptr %55, i64 %57
  store i8 %54, ptr %58, align 1, !tbaa !24
  %59 = load i64, ptr %4, align 8, !tbaa !7
  %60 = ashr i64 %59, 8
  store i64 %60, ptr %4, align 8, !tbaa !7
  %61 = load i64, ptr %4, align 8, !tbaa !7
  %62 = icmp eq i64 %61, 0
  br i1 %62, label %63, label %68

63:                                               ; preds = %51
  %64 = load i32, ptr %6, align 4, !tbaa !22
  %65 = trunc i32 %64 to i8
  %66 = load ptr, ptr %5, align 8, !tbaa !20
  %67 = getelementptr i8, ptr %66, i64 0
  store i8 %65, ptr %67, align 1, !tbaa !24
  br label %81

68:                                               ; preds = %51
  %69 = load i64, ptr %4, align 8, !tbaa !7
  %70 = icmp eq i64 %69, -1
  br i1 %70, label %71, label %77

71:                                               ; preds = %68
  %72 = load i32, ptr %6, align 4, !tbaa !22
  %73 = sub i32 0, %72
  %74 = trunc i32 %73 to i8
  %75 = load ptr, ptr %5, align 8, !tbaa !20
  %76 = getelementptr i8, ptr %75, i64 0
  store i8 %74, ptr %76, align 1, !tbaa !24
  br label %81

77:                                               ; preds = %68
  br label %78

78:                                               ; preds = %77
  %79 = load i32, ptr %6, align 4, !tbaa !22
  %80 = add i32 %79, 1
  store i32 %80, ptr %6, align 4, !tbaa !22
  br label %48, !llvm.loop !25

81:                                               ; preds = %71, %63, %48
  %82 = load i32, ptr %6, align 4, !tbaa !22
  %83 = add i32 %82, 1
  store i32 %83, ptr %3, align 4
  store i32 1, ptr %7, align 4
  br label %84

84:                                               ; preds = %81, %40, %28, %19, %15
  call void @llvm.lifetime.end.p0(i64 4, ptr %6) #23
  %85 = load i32, ptr %3, align 4
  ret i32 %85
}