; Function Attrs: nofree norecurse nosync nounwind sspstrong memory(argmem: write) uwtable
define hidden range(i32 1, 0) i32 @ruby_marshal_write_long(i64 noundef %0, ptr noundef writeonly captures(none) %1) local_unnamed_addr #5 {
  %3 = add i64 %0, 2147483648
  %or.cond33 = icmp ult i64 %3, 4294967296
  br i1 %or.cond33, label %4, label %.loopexit

4:                                                ; preds = %2
  %5 = icmp eq i64 %0, 0
  br i1 %5, label %6, label %7

6:                                                ; preds = %4
  store i8 0, ptr %1, align 1, !tbaa !17
  br label %.loopexit

7:                                                ; preds = %4
  %or.cond = icmp ult i64 %0, 123
  br i1 %or.cond, label %8, label %11

8:                                                ; preds = %7
  %9 = trunc nuw i64 %0 to i8
  %10 = add nuw nsw i8 %9, 5
  store i8 %10, ptr %1, align 1, !tbaa !17
  br label %.loopexit

11:                                               ; preds = %7
  %or.cond3 = icmp ugt i64 %0, -124
  br i1 %or.cond3, label %12, label %.preheader

12:                                               ; preds = %11
  %13 = trunc i64 %0 to i8
  %14 = add nsw i8 %13, -5
  store i8 %14, ptr %1, align 1, !tbaa !17
  br label %.loopexit

.preheader:                                       ; preds = %11, %26
  %indvars.iv = phi i64 [ %indvars.iv.next, %26 ], [ 1, %11 ]
  %.02937 = phi i64 [ %17, %26 ], [ %0, %11 ]
  %15 = trunc i64 %.02937 to i8
  %16 = getelementptr i8, ptr %1, i64 %indvars.iv
  store i8 %15, ptr %16, align 1, !tbaa !17
  %17 = ashr i64 %.02937, 8
  %18 = icmp ult i64 %.02937, 256
  br i1 %18, label %19, label %21

19:                                               ; preds = %.preheader
  %20 = trunc i64 %indvars.iv to i8
  br label %.loopexit.sink.split

21:                                               ; preds = %.preheader
  %22 = icmp eq i64 %17, -1
  br i1 %22, label %23, label %26

23:                                               ; preds = %21
  %24 = trunc i64 %indvars.iv to i8
  %25 = sub nsw i8 0, %24
  br label %.loopexit.sink.split

26:                                               ; preds = %21
  %indvars.iv.next = add nuw nsw i64 %indvars.iv, 1
  %exitcond.not = icmp eq i64 %indvars.iv.next, 9
  br i1 %exitcond.not, label %.loopexit, label %.preheader, !llvm.loop !18

.loopexit.sink.split:                             ; preds = %19, %23
  %.sink = phi i8 [ %25, %23 ], [ %20, %19 ]
  %.036.ph = trunc i64 %indvars.iv to i32
  store i8 %.sink, ptr %1, align 1, !tbaa !17
  %27 = add nuw nsw i32 %.036.ph, 1
  br label %.loopexit

.loopexit:                                        ; preds = %26, %.loopexit.sink.split, %2, %12, %8, %6
  %.028 = phi i32 [ 1, %6 ], [ 1, %8 ], [ 1, %12 ], [ -1, %2 ], [ %27, %.loopexit.sink.split ], [ 10, %26 ]
  ret i32 %.028
}